target datalayout = "e-m:e-p270:32:32-p271:32:32-p272:64:64-i64:64-i128:128-f80:128-n8:16:32:64-S128"
target triple = "x86_64-pc-linux-gnu"

%struct.HLSAudioSetupInfo = type { i32, i32, i16, i8, i8, [10 x i8] }

; Function Attrs: nounwind uwtable
define void @ff_hls_senc_read_audio_setup_info(ptr noundef %0, ptr noundef %1, i64 noundef %2) #0 {
  %4 = alloca ptr, align 8
  %5 = alloca ptr, align 8
  %6 = alloca i64, align 8
  store ptr %0, ptr %4, align 8, !tbaa !4
  store ptr %1, ptr %5, align 8, !tbaa !9
  store i64 %2, ptr %6, align 8, !tbaa !11
  %7 = load i64, ptr %6, align 8, !tbaa !11
  %8 = icmp ult i64 %7, 8
  br i1 %8, label %9, label %10

9:                                                ; preds = %3
  br label %91

10:                                               ; preds = %3
  %11 = load ptr, ptr %5, align 8, !tbaa !9
  %12 = load i32, ptr %11, align 1, !tbaa !13
  %13 = load ptr, ptr %4, align 8, !tbaa !4
  %14 = getelementptr inbounds nuw %struct.HLSAudioSetupInfo, ptr %13, i32 0, i32 1
  store i32 %12, ptr %14, align 4, !tbaa !14
  %15 = load ptr, ptr %4, align 8, !tbaa !4
  %16 = getelementptr inbounds nuw %struct.HLSAudioSetupInfo, ptr %15, i32 0, i32 1
  %17 = load i32, ptr %16, align 4, !tbaa !14
  %18 = icmp eq i32 %17, 1667326330
  br i1 %18, label %19, label %22

19:                                               ; preds = %10
  %20 = load ptr, ptr %4, align 8, !tbaa !4
  %21 = getelementptr inbounds nuw %struct.HLSAudioSetupInfo, ptr %20, i32 0, i32 0
  store i32 86018, ptr %21, align 4, !tbaa !18
  br label %43

22:                                               ; preds = %10
  %23 = load ptr, ptr %4, align 8, !tbaa !4
  %24 = getelementptr inbounds nuw %struct.HLSAudioSetupInfo, ptr %23, i32 0, i32 1
  %25 = load i32, ptr %24, align 4, !tbaa !14
  %26 = icmp eq i32 %25, 862151034
  br i1 %26, label %27, label %30

27:                                               ; preds = %22
  %28 = load ptr, ptr %4, align 8, !tbaa !4
  %29 = getelementptr inbounds nuw %struct.HLSAudioSetupInfo, ptr %28, i32 0, i32 0
  store i32 86019, ptr %29, align 4, !tbaa !18
  br label %42

30:                                               ; preds = %22
  %31 = load ptr, ptr %4, align 8, !tbaa !4
  %32 = getelementptr inbounds nuw %struct.HLSAudioSetupInfo, ptr %31, i32 0, i32 1
  %33 = load i32, ptr %32, align 4, !tbaa !14
  %34 = icmp eq i32 %33, 862152058
  br i1 %34, label %35, label %38

35:                                               ; preds = %30
  %36 = load ptr, ptr %4, align 8, !tbaa !4
  %37 = getelementptr inbounds nuw %struct.HLSAudioSetupInfo, ptr %36, i32 0, i32 0
  store i32 86056, ptr %37, align 4, !tbaa !18
  br label %41

38:                                               ; preds = %30
  %39 = load ptr, ptr %4, align 8, !tbaa !4
  %40 = getelementptr inbounds nuw %struct.HLSAudioSetupInfo, ptr %39, i32 0, i32 0
  store i32 0, ptr %40, align 4, !tbaa !18
  br label %41

41:                                               ; preds = %38, %35
  br label %42

42:                                               ; preds = %41, %27
  br label %43

43:                                               ; preds = %42, %19
  %44 = load ptr, ptr %5, align 8, !tbaa !9
  %45 = getelementptr inbounds i8, ptr %44, i64 4
  store ptr %45, ptr %5, align 8, !tbaa !9
  %46 = load ptr, ptr %5, align 8, !tbaa !9
  %47 = load i16, ptr %46, align 1, !tbaa !13
  %48 = load ptr, ptr %4, align 8, !tbaa !4
  %49 = getelementptr inbounds nuw %struct.HLSAudioSetupInfo, ptr %48, i32 0, i32 2
  store i16 %47, ptr %49, align 4, !tbaa !19
  %50 = load ptr, ptr %5, align 8, !tbaa !9
  %51 = getelementptr inbounds i8, ptr %50, i64 2
  store ptr %51, ptr %5, align 8, !tbaa !9
  %52 = load ptr, ptr %5, align 8, !tbaa !9
  %53 = getelementptr inbounds nuw i8, ptr %52, i32 1
  store ptr %53, ptr %5, align 8, !tbaa !9
  %54 = load i8, ptr %52, align 1, !tbaa !13
  %55 = load ptr, ptr %4, align 8, !tbaa !4
  %56 = getelementptr inbounds nuw %struct.HLSAudioSetupInfo, ptr %55, i32 0, i32 3
  store i8 %54, ptr %56, align 2, !tbaa !20
  %57 = load ptr, ptr %5, align 8, !tbaa !9
  %58 = getelementptr inbounds nuw i8, ptr %57, i32 1
  store ptr %58, ptr %5, align 8, !tbaa !9
  %59 = load i8, ptr %57, align 1, !tbaa !13
  %60 = load ptr, ptr %4, align 8, !tbaa !4
  %61 = getelementptr inbounds nuw %struct.HLSAudioSetupInfo, ptr %60, i32 0, i32 4
  store i8 %59, ptr %61, align 1, !tbaa !21
  %62 = load ptr, ptr %4, align 8, !tbaa !4
  %63 = getelementptr inbounds nuw %struct.HLSAudioSetupInfo, ptr %62, i32 0, i32 4
  %64 = load i8, ptr %63, align 1, !tbaa !21
  %65 = zext i8 %64 to i64
  %66 = load i64, ptr %6, align 8, !tbaa !11
  %67 = sub i64 %66, 8
  %68 = icmp ugt i64 %65, %67
  br i1 %68, label %69, label %75

69:                                               ; preds = %43
  %70 = load i64, ptr %6, align 8, !tbaa !11
  %71 = sub i64 %70, 8
  %72 = trunc i64 %71 to i8
  %73 = load ptr, ptr %4, align 8, !tbaa !4
  %74 = getelementptr inbounds nuw %struct.HLSAudioSetupInfo, ptr %73, i32 0, i32 4
  store i8 %72, ptr %74, align 1, !tbaa !21
  br label %75

75:                                               ; preds = %69, %43
  %76 = load ptr, ptr %4, align 8, !tbaa !4
  %77 = getelementptr inbounds nuw %struct.HLSAudioSetupInfo, ptr %76, i32 0, i32 4
  %78 = load i8, ptr %77, align 1, !tbaa !21
  %79 = zext i8 %78 to i32
  %80 = icmp sgt i32 %79, 10
  br i1 %80, label %81, label %82

81:                                               ; preds = %75
  br label %91

82:                                               ; preds = %75
  %83 = load ptr, ptr %4, align 8, !tbaa !4
  %84 = getelementptr inbounds nuw %struct.HLSAudioSetupInfo, ptr %83, i32 0, i32 5
  %85 = getelementptr inbounds [10 x i8], ptr %84, i64 0, i64 0
  %86 = load ptr, ptr %5, align 8, !tbaa !9
  %87 = load ptr, ptr %4, align 8, !tbaa !4
  %88 = getelementptr inbounds nuw %struct.HLSAudioSetupInfo, ptr %87, i32 0, i32 4
  %89 = load i8, ptr %88, align 1, !tbaa !21
  %90 = zext i8 %89 to i64
  call void @llvm.memcpy.p0.p0.i64(ptr align 4 %85, ptr align 1 %86, i64 %90, i1 false)
  br label %91

91:                                               ; preds = %82, %81, %9
  ret void
}