; Function Attrs: mustprogress nofree norecurse nosync nounwind willreturn memory(argmem: readwrite) uwtable
define void @ff_hls_senc_read_audio_setup_info(ptr noundef writeonly captures(none) %0, ptr noundef readonly captures(none) %1, i64 noundef %2) local_unnamed_addr #0 {
  %4 = icmp ult i64 %2, 8
  br i1 %4, label %27, label %5

5:                                                ; preds = %3
  %6 = load i32, ptr %1, align 1, !tbaa !4
  %7 = getelementptr inbounds nuw i8, ptr %0, i64 4
  store i32 %6, ptr %7, align 4, !tbaa !7
  switch i32 %6, label %10 [
    i32 1667326330, label %11
    i32 862151034, label %8
    i32 862152058, label %9
  ]

8:                                                ; preds = %5
  br label %11

9:                                                ; preds = %5
  br label %11

10:                                               ; preds = %5
  br label %11

11:                                               ; preds = %5, %8, %10, %9
  %.sink = phi i32 [ 86019, %8 ], [ 0, %10 ], [ 86056, %9 ], [ 86018, %5 ]
  store i32 %.sink, ptr %0, align 4, !tbaa !11
  %12 = getelementptr inbounds nuw i8, ptr %1, i64 4
  %13 = load i16, ptr %12, align 1, !tbaa !4
  %14 = getelementptr inbounds nuw i8, ptr %0, i64 8
  store i16 %13, ptr %14, align 4, !tbaa !12
  %15 = getelementptr inbounds nuw i8, ptr %1, i64 6
  %16 = getelementptr inbounds nuw i8, ptr %1, i64 7
  %17 = load i8, ptr %15, align 1, !tbaa !4
  %18 = getelementptr inbounds nuw i8, ptr %0, i64 10
  store i8 %17, ptr %18, align 2, !tbaa !13
  %19 = load i8, ptr %16, align 1, !tbaa !4
  %20 = getelementptr inbounds nuw i8, ptr %0, i64 11
  %21 = zext i8 %19 to i64
  %22 = add i64 %2, -8
  %spec.select27 = tail call i64 @llvm.umin.i64(i64 %22, i64 %21)
  %spec.select = trunc nuw i64 %spec.select27 to i8
  store i8 %spec.select, ptr %20, align 1, !tbaa !14
  %23 = icmp samesign ugt i64 %spec.select27, 10
  br i1 %23, label %27, label %24

24:                                               ; preds = %11
  %25 = getelementptr inbounds nuw i8, ptr %1, i64 8
  %26 = getelementptr inbounds nuw i8, ptr %0, i64 12
  tail call void @llvm.memcpy.p0.p0.i64(ptr nonnull align 4 %26, ptr nonnull align 1 %25, i64 %spec.select27, i1 false)
  br label %27

27:                                               ; preds = %11, %3, %24
  ret void
}